target datalayout = "e-m:e-p270:32:32-p271:32:32-p272:64:64-i64:64-i128:128-f80:128-n8:16:32:64-S128"
target triple = "x86_64-pc-linux-gnu"

%struct.Nf_Cfg_t_ = type { i32 }
%struct.Vec_Wec_t_ = type { i32, i32, ptr }
%struct.Vec_Int_t_ = type { i32, i32, ptr }
%struct.Nf_Man_t_ = type { ptr, ptr, ptr, ptr, ptr, ptr, i32, ptr, %struct.Vec_Ptr_t_, %struct.Vec_Int_t_, %struct.Vec_Int_t_, %struct.Vec_Flt_t_, %struct.Vec_Int_t_, %struct.Vec_Flt_t_, %struct.Vec_Int_t_, %struct.Vec_Int_t_, i32, i32, i32, i32, i32, i64, float, i64, [6 x double], i32 }
%struct.Vec_Ptr_t_ = type { i32, i32, ptr }
%struct.Vec_Flt_t_ = type { i32, i32, ptr }
%struct.Nf_Mat_t_ = type { i32, %struct.Nf_Cfg_t_, i32, float }

; Function Attrs: inlinehint nounwind uwtable
define internal ptr @Vec_PtrEntry(ptr noundef %0, i32 noundef %1) #2 {
  %3 = alloca ptr, align 8
  %4 = alloca i32, align 4
  store ptr %0, ptr %3, align 8, !tbaa !119
  store i32 %1, ptr %4, align 4, !tbaa !17
  %5 = load ptr, ptr %3, align 8, !tbaa !119
  %6 = getelementptr inbounds nuw %struct.Vec_Ptr_t_, ptr %5, i32 0, i32 2
  %7 = load ptr, ptr %6, align 8, !tbaa !121
  %8 = load i32, ptr %4, align 4, !tbaa !17
  %9 = sext i32 %8 to i64
  %10 = getelementptr inbounds ptr, ptr %7, i64 %9
  %11 = load ptr, ptr %10, align 8, !tbaa !135
  ret ptr %11
}

; Function Attrs: inlinehint nounwind uwtable
define internal i32 @Vec_IntEntry(ptr noundef %0, i32 noundef %1) #2 {
  %3 = alloca ptr, align 8
  %4 = alloca i32, align 4
  store ptr %0, ptr %3, align 8, !tbaa !26
  store i32 %1, ptr %4, align 4, !tbaa !17
  %5 = load ptr, ptr %3, align 8, !tbaa !26
  %6 = getelementptr inbounds nuw %struct.Vec_Int_t_, ptr %5, i32 0, i32 2
  %7 = load ptr, ptr %6, align 8, !tbaa !46
  %8 = load i32, ptr %4, align 4, !tbaa !17
  %9 = sext i32 %8 to i64
  %10 = getelementptr inbounds i32, ptr %7, i64 %9
  %11 = load i32, ptr %10, align 4, !tbaa !17
  ret i32 %11
}

; Function Attrs: inlinehint nounwind uwtable
define internal ptr @Nf_ManCutSet(ptr noundef %0, i32 noundef %1) #2 {
  %3 = alloca ptr, align 8
  %4 = alloca i32, align 4
  store ptr %0, ptr %3, align 8, !tbaa !61
  store i32 %1, ptr %4, align 4, !tbaa !17
  %5 = load ptr, ptr %3, align 8, !tbaa !61
  %6 = getelementptr inbounds nuw %struct.Nf_Man_t_, ptr %5, i32 0, i32 8
  %7 = load i32, ptr %4, align 4, !tbaa !17
  %8 = ashr i32 %7, 16
  %9 = call ptr @Vec_PtrEntry(ptr noundef %6, i32 noundef %8)
  %10 = load i32, ptr %4, align 4, !tbaa !17
  %11 = and i32 %10, 65535
  %12 = sext i32 %11 to i64
  %13 = getelementptr inbounds i32, ptr %9, i64 %12
  ret ptr %13
}

; Function Attrs: inlinehint nounwind uwtable
define internal i32 @Nf_ObjCutSetId(ptr noundef %0, i32 noundef %1) #2 {
  %3 = alloca ptr, align 8
  %4 = alloca i32, align 4
  store ptr %0, ptr %3, align 8, !tbaa !61
  store i32 %1, ptr %4, align 4, !tbaa !17
  %5 = load ptr, ptr %3, align 8, !tbaa !61
  %6 = getelementptr inbounds nuw %struct.Nf_Man_t_, ptr %5, i32 0, i32 9
  %7 = load i32, ptr %4, align 4, !tbaa !17
  %8 = call i32 @Vec_IntEntry(ptr noundef %6, i32 noundef %7)
  ret i32 %8
}

; Function Attrs: inlinehint nounwind uwtable
define internal i32 @Nf_CutSize(ptr noundef %0) #2 {
  %2 = alloca ptr, align 8
  store ptr %0, ptr %2, align 8, !tbaa !8
  %3 = load ptr, ptr %2, align 8, !tbaa !8
  %4 = getelementptr inbounds i32, ptr %3, i64 0
  %5 = load i32, ptr %4, align 4, !tbaa !17
  %6 = and i32 %5, 31
  ret i32 %6
}

; Function Attrs: inlinehint nounwind uwtable
define internal i32 @Vec_WecSize(ptr noundef %0) #2 {
  %2 = alloca ptr, align 8
  store ptr %0, ptr %2, align 8, !tbaa !23
  %3 = load ptr, ptr %2, align 8, !tbaa !23
  %4 = getelementptr inbounds nuw %struct.Vec_Wec_t_, ptr %3, i32 0, i32 1
  %5 = load i32, ptr %4, align 4, !tbaa !40
  ret i32 %5
}

; Function Attrs: inlinehint nounwind uwtable
define internal i32 @Abc_Lit2Var(i32 noundef %0) #2 {
  %2 = alloca i32, align 4
  store i32 %0, ptr %2, align 4, !tbaa !17
  %3 = load i32, ptr %2, align 4, !tbaa !17
  %4 = ashr i32 %3, 1
  ret i32 %4
}

; Function Attrs: inlinehint nounwind uwtable
define internal i32 @Nf_CutFunc(ptr noundef %0) #2 {
  %2 = alloca ptr, align 8
  store ptr %0, ptr %2, align 8, !tbaa !8
  %3 = load ptr, ptr %2, align 8, !tbaa !8
  %4 = getelementptr inbounds i32, ptr %3, i64 0
  %5 = load i32, ptr %4, align 4, !tbaa !17
  %6 = lshr i32 %5, 5
  ret i32 %6
}

; Function Attrs: inlinehint nounwind uwtable
define internal ptr @Nf_ObjCutSet(ptr noundef %0, i32 noundef %1) #2 {
  %3 = alloca ptr, align 8
  %4 = alloca i32, align 4
  store ptr %0, ptr %3, align 8, !tbaa !61
  store i32 %1, ptr %4, align 4, !tbaa !17
  %5 = load ptr, ptr %3, align 8, !tbaa !61
  %6 = load ptr, ptr %3, align 8, !tbaa !61
  %7 = load i32, ptr %4, align 4, !tbaa !17
  %8 = call i32 @Nf_ObjCutSetId(ptr noundef %6, i32 noundef %7)
  %9 = call ptr @Nf_ManCutSet(ptr noundef %5, i32 noundef %8)
  ret ptr %9
}

; Function Attrs: nounwind uwtable
define void @Nf_ManElaBestMatch(ptr noundef %0, i32 noundef %1, i32 noundef %2, ptr noundef %3, i32 noundef %4) #0 {
  %6 = alloca ptr, align 8
  %7 = alloca i32, align 4
  %8 = alloca i32, align 4
  %9 = alloca ptr, align 8
  %10 = alloca i32, align 4
  %11 = alloca i32, align 4
  %12 = alloca ptr, align 8
  %13 = alloca ptr, align 8
  store ptr %0, ptr %6, align 8, !tbaa !61
  store i32 %1, ptr %7, align 4, !tbaa !17
  store i32 %2, ptr %8, align 4, !tbaa !17
  store ptr %3, ptr %9, align 8, !tbaa !193
  store i32 %4, ptr %10, align 4, !tbaa !17
  call void @llvm.lifetime.start.p0(i64 4, ptr %11) #13
  call void @llvm.lifetime.start.p0(i64 8, ptr %12) #13
  call void @llvm.lifetime.start.p0(i64 8, ptr %13) #13
  %14 = load ptr, ptr %6, align 8, !tbaa !61
  %15 = load i32, ptr %7, align 4, !tbaa !17
  %16 = call ptr @Nf_ObjCutSet(ptr noundef %14, i32 noundef %15)
  store ptr %16, ptr %13, align 8, !tbaa !8
  %17 = load ptr, ptr %9, align 8, !tbaa !193
  call void @llvm.memset.p0.i64(ptr align 4 %17, i8 0, i64 16, i1 false)
  %18 = load ptr, ptr %9, align 8, !tbaa !193
  %19 = getelementptr inbounds nuw %struct.Nf_Mat_t_, ptr %18, i32 0, i32 2
  store i32 1073741823, ptr %19, align 4, !tbaa !195
  %20 = load ptr, ptr %9, align 8, !tbaa !193
  %21 = getelementptr inbounds nuw %struct.Nf_Mat_t_, ptr %20, i32 0, i32 3
  store float 0x47EFFFFFE0000000, ptr %21, align 4, !tbaa !198
  store i32 0, ptr %11, align 4, !tbaa !17
  %22 = load ptr, ptr %13, align 8, !tbaa !8
  %23 = getelementptr inbounds i32, ptr %22, i64 1
  store ptr %23, ptr %12, align 8, !tbaa !8
  br label %24

24:                                               ; preds = %48, %5
  %25 = load i32, ptr %11, align 4, !tbaa !17
  %26 = load ptr, ptr %13, align 8, !tbaa !8
  %27 = getelementptr inbounds i32, ptr %26, i64 0
  %28 = load i32, ptr %27, align 4, !tbaa !17
  %29 = icmp slt i32 %25, %28
  br i1 %29, label %30, label %57

30:                                               ; preds = %24
  %31 = load ptr, ptr %12, align 8, !tbaa !8
  %32 = call i32 @Nf_CutFunc(ptr noundef %31)
  %33 = call i32 @Abc_Lit2Var(i32 noundef %32)
  %34 = load ptr, ptr %6, align 8, !tbaa !61
  %35 = getelementptr inbounds nuw %struct.Nf_Man_t_, ptr %34, i32 0, i32 4
  %36 = load ptr, ptr %35, align 8, !tbaa !80
  %37 = call i32 @Vec_WecSize(ptr noundef %36)
  %38 = icmp sge i32 %33, %37
  br i1 %38, label %39, label %40

39:                                               ; preds = %30
  br label %48

40:                                               ; preds = %30
  %41 = load ptr, ptr %6, align 8, !tbaa !61
  %42 = load i32, ptr %7, align 4, !tbaa !17
  %43 = load i32, ptr %8, align 4, !tbaa !17
  %44 = load ptr, ptr %12, align 8, !tbaa !8
  %45 = load ptr, ptr %13, align 8, !tbaa !8
  %46 = load ptr, ptr %9, align 8, !tbaa !193
  %47 = load i32, ptr %10, align 4, !tbaa !17
  call void @Nf_ManElaBestMatchOne(ptr noundef %41, i32 noundef %42, i32 noundef %43, ptr noundef %44, ptr noundef %45, ptr noundef %46, i32 noundef %47)
  br label %48

48:                                               ; preds = %40, %39
  %49 = load i32, ptr %11, align 4, !tbaa !17
  %50 = add nsw i32 %49, 1
  store i32 %50, ptr %11, align 4, !tbaa !17
  %51 = load ptr, ptr %12, align 8, !tbaa !8
  %52 = call i32 @Nf_CutSize(ptr noundef %51)
  %53 = add nsw i32 %52, 1
  %54 = load ptr, ptr %12, align 8, !tbaa !8
  %55 = sext i32 %53 to i64
  %56 = getelementptr inbounds i32, ptr %54, i64 %55
  store ptr %56, ptr %12, align 8, !tbaa !8
  br label %24, !llvm.loop !239

57:                                               ; preds = %24
  call void @llvm.lifetime.end.p0(i64 8, ptr %13) #13
  call void @llvm.lifetime.end.p0(i64 8, ptr %12) #13
  call void @llvm.lifetime.end.p0(i64 4, ptr %11) #13
  ret void
}