; Function Attrs: nounwind uwtable
define void @Nf_ManElaBestMatch(ptr noundef %0, i32 noundef %1, i32 noundef %2, ptr noundef captures(none) initializes((0, 16)) %3, i32 noundef %4) local_unnamed_addr #2 {
  %6 = getelementptr i8, ptr %0, i64 72
  %.val20 = load ptr, ptr %6, align 8, !tbaa !108
  %7 = getelementptr i8, ptr %0, i64 88
  %.val21 = load ptr, ptr %7, align 8, !tbaa !25
  %8 = sext i32 %1 to i64
  %9 = getelementptr inbounds i32, ptr %.val21, i64 %8
  %10 = load i32, ptr %9, align 4, !tbaa !13
  %11 = ashr i32 %10, 16
  %12 = sext i32 %11 to i64
  %13 = getelementptr inbounds ptr, ptr %.val20, i64 %12
  %14 = load ptr, ptr %13, align 8, !tbaa !124
  %15 = and i32 %10, 65535
  %16 = zext nneg i32 %15 to i64
  %17 = getelementptr inbounds nuw i32, ptr %14, i64 %16
  store i64 0, ptr %3, align 4
  %18 = getelementptr inbounds nuw i8, ptr %3, i64 8
  store i32 1073741823, ptr %18, align 4, !tbaa !192
  %19 = getelementptr inbounds nuw i8, ptr %3, i64 12
  store float 0x47EFFFFFE0000000, ptr %19, align 4, !tbaa !195
  %20 = load i32, ptr %17, align 4, !tbaa !13
  %21 = icmp sgt i32 %20, 0
  br i1 %21, label %.lr.ph, label %._crit_edge

.lr.ph:                                           ; preds = %5
  %22 = getelementptr inbounds nuw i8, ptr %0, i64 32
  br label %23

23:                                               ; preds = %.lr.ph, %29
  %24 = phi i32 [ %20, %.lr.ph ], [ %30, %29 ]
  %.pn = phi ptr [ %17, %.lr.ph ], [ %34, %29 ]
  %.024 = phi i32 [ 0, %.lr.ph ], [ %31, %29 ]
  %.01925 = getelementptr inbounds nuw i8, ptr %.pn, i64 4
  %.019.val = load i32, ptr %.01925, align 4, !tbaa !13
  %25 = lshr i32 %.019.val, 6
  %26 = load ptr, ptr %22, align 8, !tbaa !78
  %27 = getelementptr i8, ptr %26, i64 4
  %.val = load i32, ptr %27, align 4, !tbaa !17
  %.not = icmp slt i32 %25, %.val
  br i1 %.not, label %28, label %29

28:                                               ; preds = %23
  tail call void @Nf_ManElaBestMatchOne(ptr noundef nonnull %0, i32 noundef %1, i32 noundef %2, ptr noundef nonnull %.01925, ptr noundef nonnull %17, ptr noundef nonnull %3, i32 noundef %4)
  %.019.val22.pre = load i32, ptr %.01925, align 4, !tbaa !13
  %.pre = load i32, ptr %17, align 4, !tbaa !13
  br label %29

29:                                               ; preds = %23, %28
  %30 = phi i32 [ %24, %23 ], [ %.pre, %28 ]
  %.019.val22 = phi i32 [ %.019.val, %23 ], [ %.019.val22.pre, %28 ]
  %31 = add nuw nsw i32 %.024, 1
  %32 = and i32 %.019.val22, 31
  %33 = zext nneg i32 %32 to i64
  %34 = getelementptr inbounds nuw i32, ptr %.01925, i64 %33
  %35 = icmp slt i32 %31, %30
  br i1 %35, label %23, label %._crit_edge, !llvm.loop !240

._crit_edge:                                      ; preds = %29, %5
  ret void
}